; Function Attrs: nounwind uwtable
define range(i32 -1, 1) i32 @H5AC_retag_copied_metadata(ptr noundef readonly captures(none) %0, i64 noundef %1) local_unnamed_addr #4 {
  %3 = load i8, ptr @H5AC_init_g, align 1, !tbaa !3, !range !7, !noundef !8
  %4 = trunc nuw i8 %3 to i1
  %5 = load i8, ptr @H5_libterm_g, align 1, !range !7
  %6 = trunc nuw i8 %5 to i1
  %7 = select i1 %4, i1 true, i1 %6
  br i1 %7, label %8, label %.thread, !prof !9

.thread:                                          ; preds = %2
  store i8 1, ptr @H5AC_init_g, align 1, !tbaa !3
  br label %11

8:                                                ; preds = %2
  %9 = xor i1 %6, true
  %10 = select i1 %4, i1 true, i1 %9
  br i1 %10, label %11, label %22, !prof !41

11:                                               ; preds = %.thread, %8
  %12 = getelementptr inbounds nuw i8, ptr %0, i64 16
  %13 = load ptr, ptr %12, align 8, !tbaa !11
  %14 = getelementptr inbounds nuw i8, ptr %13, i64 112
  %15 = load ptr, ptr %14, align 8, !tbaa !20
  %16 = tail call i32 @H5C_retag_entries(ptr noundef %15, i64 noundef 2, i64 noundef %1) #8
  %17 = icmp slt i32 %16, 0
  br i1 %17, label %18, label %22

18:                                               ; preds = %11
  %19 = load i64, ptr @H5E_CACHE_g, align 8, !tbaa !42
  %20 = load i64, ptr @H5E_CANTSET_g, align 8, !tbaa !42
  %21 = tail call i32 (ptr, ptr, i32, i64, i64, ptr, ...) @H5E_printf_stack(ptr noundef nonnull @.str, ptr noundef nonnull @__func__.H5AC_retag_copied_metadata, i32 noundef 2178, i64 noundef %19, i64 noundef %20, ptr noundef nonnull @.str.60) #8
  br label %22

22:                                               ; preds = %18, %11, %8
  %.0 = phi i32 [ -1, %18 ], [ 0, %11 ], [ 0, %8 ]
  ret i32 %.0
}